target datalayout = "e-m:e-p270:32:32-p271:32:32-p272:64:64-i64:64-i128:128-f80:128-n8:16:32:64-S128"
target triple = "x86_64-pc-linux-gnu"

; Function Attrs: mustprogress nounwind uwtable
define internal noundef i64 @_ZN4llvm6objectL10resolveARMEmmmml(i64 noundef %0, i64 noundef %1, i64 noundef %2, i64 noundef %3, i64 noundef %4) #0 {
  %6 = alloca i64, align 8
  %7 = alloca i64, align 8
  %8 = alloca i64, align 8
  %9 = alloca i64, align 8
  %10 = alloca i64, align 8
  %11 = alloca i64, align 8
  store i64 %0, ptr %7, align 8
  store i64 %1, ptr %8, align 8
  store i64 %2, ptr %9, align 8
  store i64 %3, ptr %10, align 8
  store i64 %4, ptr %11, align 8
  %12 = load i64, ptr %7, align 8
  switch i64 %12, label %29 [
    i64 2, label %13
    i64 3, label %20
  ]

13:                                               ; preds = %5
  %14 = load i64, ptr %9, align 8
  %15 = load i64, ptr %10, align 8
  %16 = add i64 %14, %15
  %17 = load i64, ptr %11, align 8
  %18 = add i64 %16, %17
  %19 = and i64 %18, 4294967295
  store i64 %19, ptr %6, align 8
  br label %30

20:                                               ; preds = %5
  %21 = load i64, ptr %9, align 8
  %22 = load i64, ptr %10, align 8
  %23 = add i64 %21, %22
  %24 = load i64, ptr %11, align 8
  %25 = add i64 %23, %24
  %26 = load i64, ptr %8, align 8
  %27 = sub i64 %25, %26
  %28 = and i64 %27, 4294967295
  store i64 %28, ptr %6, align 8
  br label %30

29:                                               ; preds = %5
  unreachable

30:                                               ; preds = %20, %13
  %31 = load i64, ptr %6, align 8
  ret i64 %31
}