; Function Attrs: mustprogress nofree norecurse nosync nounwind willreturn memory(none) uwtable
define internal noundef range(i64 0, 4294967296) i64 @_ZN4llvm6objectL10resolveARMEmmmml(i64 noundef %0, i64 noundef %1, i64 noundef %2, i64 noundef %3, i64 noundef %4) #1 {
  %switch = icmp eq i64 %0, 2
  %6 = add i64 %3, %2
  %7 = select i1 %switch, i64 0, i64 %1
  %.pn = sub i64 %6, %7
  %.0.in = add i64 %.pn, %4
  %.0 = and i64 %.0.in, 4294967295
  ret i64 %.0
}